target datalayout = "e-m:e-p270:32:32-p271:32:32-p272:64:64-i64:64-i128:128-f80:128-n8:16:32:64-S128"
target triple = "x86_64-pc-linux-gnu"

%"struct.folly::symbolizer::ElfFile::OpenResult" = type { i32, ptr }
%"struct.google::CheckOpString" = type { ptr }
%"class.google::LogMessageFatal" = type { %"class.google::LogMessage" }
%"class.google::LogMessage" = type { ptr, ptr }

@.str = private unnamed_addr constant [14 x i8] c"r == kSuccess\00", align 1
@.str.1 = private unnamed_addr constant [124 x i8] c"generated/home/dtcxzyw/WorkSpace/Projects/compilers/llvm-opt-benchmark/bench/folly/folly/folly/debugging/symbolizer/Elf.cpp\00", align 1

; Function Attrs: mustprogress nounwind uwtable
define linkonce_odr noundef zeroext i1 @_ZNK6google13CheckOpStringcvbEv(ptr noundef nonnull align 8 dereferenceable(8) %0) #0 comdat align 2 {
  %2 = alloca ptr, align 8
  store ptr %0, ptr %2, align 8, !tbaa !52
  %3 = load ptr, ptr %2, align 8
  %4 = getelementptr inbounds nuw %"struct.google::CheckOpString", ptr %3, i32 0, i32 0
  %5 = load ptr, ptr %4, align 8, !tbaa !56
  %6 = icmp ne ptr %5, null
  %7 = zext i1 %6 to i64
  %8 = call i64 @llvm.expect.i64(i64 %7, i64 0)
  %9 = icmp ne i64 %8, 0
  ret i1 %9
}

; Function Attrs: mustprogress nounwind uwtable
define linkonce_odr void @_ZN6google13CheckOpStringC2EPNSt7__cxx1112basic_stringIcSt11char_traitsIcESaIcEEE(ptr noundef nonnull align 8 dereferenceable(8) %0, ptr noundef %1) unnamed_addr #0 comdat align 2 {
  %3 = alloca ptr, align 8
  %4 = alloca ptr, align 8
  store ptr %0, ptr %3, align 8, !tbaa !52
  store ptr %1, ptr %4, align 8, !tbaa !54
  %5 = load ptr, ptr %3, align 8
  %6 = getelementptr inbounds nuw %"struct.google::CheckOpString", ptr %5, i32 0, i32 0
  %7 = load ptr, ptr %4, align 8, !tbaa !54
  store ptr %7, ptr %6, align 8, !tbaa !56
  ret void
}

; Function Attrs: inlinehint mustprogress uwtable
define linkonce_odr noundef ptr @_ZN6google12Check_EQImplIN5folly10symbolizer7ElfFile10OpenResultENS3_14OpenResultCodeEEEPNSt7__cxx1112basic_stringIcSt11char_traitsIcESaIcEEERKT_RKT0_PKc(ptr noundef nonnull align 8 dereferenceable(16) %0, ptr noundef nonnull align 4 dereferenceable(4) %1, ptr noundef %2) #5 comdat {
  %4 = alloca ptr, align 8
  %5 = alloca ptr, align 8
  %6 = alloca ptr, align 8
  %7 = alloca ptr, align 8
  store ptr %0, ptr %5, align 8, !tbaa !47
  store ptr %1, ptr %6, align 8, !tbaa !51
  store ptr %2, ptr %7, align 8, !tbaa !22
  %8 = load ptr, ptr %5, align 8, !tbaa !47
  %9 = call noundef i32 @_ZNK5folly10symbolizer7ElfFile10OpenResultcvNS1_14OpenResultCodeEEv(ptr noundef nonnull align 8 dereferenceable(16) %8) #24
  %10 = load ptr, ptr %6, align 8, !tbaa !51
  %11 = load i32, ptr %10, align 4, !tbaa !25
  %12 = icmp eq i32 %9, %11
  %13 = xor i1 %12, true
  %14 = xor i1 %13, true
  %15 = zext i1 %14 to i64
  %16 = call i64 @llvm.expect.i64(i64 %15, i64 1)
  %17 = icmp ne i64 %16, 0
  br i1 %17, label %18, label %19

18:                                               ; preds = %3
  store ptr null, ptr %4, align 8
  br label %24

19:                                               ; preds = %3
  %20 = load ptr, ptr %5, align 8, !tbaa !47
  %21 = load ptr, ptr %6, align 8, !tbaa !51
  %22 = load ptr, ptr %7, align 8, !tbaa !22
  %23 = call noundef ptr @_ZN6google17MakeCheckOpStringIN5folly10symbolizer7ElfFile10OpenResultENS3_14OpenResultCodeEEEPNSt7__cxx1112basic_stringIcSt11char_traitsIcESaIcEEERKT_RKT0_PKc(ptr noundef nonnull align 8 dereferenceable(16) %20, ptr noundef nonnull align 4 dereferenceable(4) %21, ptr noundef %22)
  store ptr %23, ptr %4, align 8
  br label %24

24:                                               ; preds = %19, %18
  %25 = load ptr, ptr %4, align 8
  ret ptr %25
}

; Function Attrs: inlinehint mustprogress nounwind uwtable
define linkonce_odr noundef nonnull align 4 dereferenceable(4) ptr @_ZN6google21GetReferenceableValueIN5folly10symbolizer7ElfFile14OpenResultCodeEEERKT_S7_(ptr noundef nonnull align 4 dereferenceable(4) %0) #6 comdat {
  %2 = alloca ptr, align 8
  store ptr %0, ptr %2, align 8, !tbaa !51
  %3 = load ptr, ptr %2, align 8, !tbaa !51
  ret ptr %3
}

; Function Attrs: inlinehint mustprogress nounwind uwtable
define linkonce_odr noundef nonnull align 8 dereferenceable(16) ptr @_ZN6google21GetReferenceableValueIN5folly10symbolizer7ElfFile10OpenResultEEERKT_S7_(ptr noundef nonnull align 8 dereferenceable(16) %0) #6 comdat {
  %2 = alloca ptr, align 8
  store ptr %0, ptr %2, align 8, !tbaa !47
  %3 = load ptr, ptr %2, align 8, !tbaa !47
  ret ptr %3
}

; Function Attrs: mustprogress nounwind uwtable
define linkonce_odr noundef i32 @_ZNK5folly10symbolizer7ElfFile10OpenResultcvNS1_14OpenResultCodeEEv(ptr noundef nonnull align 8 dereferenceable(16) %0) #0 comdat align 2 {
  %2 = alloca ptr, align 8
  store ptr %0, ptr %2, align 8, !tbaa !47
  %3 = load ptr, ptr %2, align 8
  %4 = getelementptr inbounds nuw %"struct.folly::symbolizer::ElfFile::OpenResult", ptr %3, i32 0, i32 0
  %5 = load i32, ptr %4, align 8, !tbaa !31
  ret i32 %5
}

; Function Attrs: mustprogress uwtable
define void @_ZN5folly10symbolizer7ElfFile4openEPKcRKNS1_7OptionsE(ptr noundef nonnull align 8 dereferenceable(576) %0, ptr noundef %1, ptr noundef nonnull align 1 dereferenceable(1) %2) #2 align 2 personality ptr @__gxx_personality_v0 {
  %4 = alloca ptr, align 8
  %5 = alloca ptr, align 8
  %6 = alloca ptr, align 8
  %7 = alloca %"struct.folly::symbolizer::ElfFile::OpenResult", align 8
  %8 = alloca %"struct.google::CheckOpString", align 8
  %9 = alloca i32, align 4
  %10 = alloca %"class.google::LogMessageFatal", align 8
  %11 = alloca ptr, align 8
  %12 = alloca i32, align 4
  store ptr %0, ptr %4, align 8, !tbaa !7
  store ptr %1, ptr %5, align 8, !tbaa !22
  store ptr %2, ptr %6, align 8, !tbaa !23
  %13 = load ptr, ptr %4, align 8
  call void @llvm.lifetime.start.p0(i64 16, ptr %7) #24
  %14 = load ptr, ptr %5, align 8, !tbaa !22
  %15 = load ptr, ptr %6, align 8, !tbaa !23
  %16 = call { i32, ptr } @_ZN5folly10symbolizer7ElfFile11openNoThrowEPKcRKNS1_7OptionsE(ptr noundef nonnull align 8 dereferenceable(576) %13, ptr noundef %14, ptr noundef nonnull align 1 dereferenceable(1) %15) #24
  %17 = getelementptr inbounds nuw { i32, ptr }, ptr %7, i32 0, i32 0
  %18 = extractvalue { i32, ptr } %16, 0
  store i32 %18, ptr %17, align 8
  %19 = getelementptr inbounds nuw { i32, ptr }, ptr %7, i32 0, i32 1
  %20 = extractvalue { i32, ptr } %16, 1
  store ptr %20, ptr %19, align 8
  %21 = call noundef i32 @_ZNK5folly10symbolizer7ElfFile10OpenResultcvNS1_14OpenResultCodeEEv(ptr noundef nonnull align 8 dereferenceable(16) %7) #24
  %22 = icmp eq i32 %21, -1
  br i1 %22, label %23, label %25

23:                                               ; preds = %3
  %24 = getelementptr inbounds nuw %"struct.folly::symbolizer::ElfFile::OpenResult", ptr %7, i32 0, i32 1
  call void @_ZN5folly16throwSystemErrorIJRPKcEEEvDpOT_(ptr noundef nonnull align 8 dereferenceable(8) %24) #25
  unreachable

25:                                               ; preds = %3
  br label %26

26:                                               ; preds = %25
  call void @llvm.lifetime.start.p0(i64 8, ptr %8) #24
  %27 = call noundef nonnull align 8 dereferenceable(16) ptr @_ZN6google21GetReferenceableValueIN5folly10symbolizer7ElfFile10OpenResultEEERKT_S7_(ptr noundef nonnull align 8 dereferenceable(16) %7)
  call void @llvm.lifetime.start.p0(i64 4, ptr %9) #24
  store i32 0, ptr %9, align 4, !tbaa !25
  %28 = call noundef nonnull align 4 dereferenceable(4) ptr @_ZN6google21GetReferenceableValueIN5folly10symbolizer7ElfFile14OpenResultCodeEEERKT_S7_(ptr noundef nonnull align 4 dereferenceable(4) %9)
  %29 = call noundef ptr @_ZN6google12Check_EQImplIN5folly10symbolizer7ElfFile10OpenResultENS3_14OpenResultCodeEEEPNSt7__cxx1112basic_stringIcSt11char_traitsIcESaIcEEERKT_RKT0_PKc(ptr noundef nonnull align 8 dereferenceable(16) %27, ptr noundef nonnull align 4 dereferenceable(4) %28, ptr noundef @.str)
  call void @_ZN6google13CheckOpStringC2EPNSt7__cxx1112basic_stringIcSt11char_traitsIcESaIcEEE(ptr noundef nonnull align 8 dereferenceable(8) %8, ptr noundef %29)
  call void @llvm.lifetime.end.p0(i64 4, ptr %9) #24
  %30 = call noundef zeroext i1 @_ZNK6google13CheckOpStringcvbEv(ptr noundef nonnull align 8 dereferenceable(8) %8)
  br i1 %30, label %32, label %31

31:                                               ; preds = %26
  call void @llvm.lifetime.end.p0(i64 8, ptr %8) #24
  br label %44

32:                                               ; preds = %26
  call void @llvm.lifetime.start.p0(i64 16, ptr %10) #24
  call void @_ZN6google15LogMessageFatalC1EPKciRKNS_13CheckOpStringE(ptr noundef nonnull align 8 dereferenceable(16) %10, ptr noundef @.str.1, i32 noundef 77, ptr noundef nonnull align 8 dereferenceable(8) %8)
  %33 = invoke noundef nonnull align 8 dereferenceable(8) ptr @_ZN6google10LogMessage6streamEv(ptr noundef nonnull align 8 dereferenceable(16) %10)
          to label %34 unwind label %39

34:                                               ; preds = %32
  %35 = getelementptr inbounds nuw %"struct.folly::symbolizer::ElfFile::OpenResult", ptr %7, i32 0, i32 1
  %36 = load ptr, ptr %35, align 8, !tbaa !27
  %37 = invoke noundef nonnull align 8 dereferenceable(8) ptr @_ZStlsISt11char_traitsIcEERSt13basic_ostreamIcT_ES5_PKc(ptr noundef nonnull align 8 dereferenceable(8) %33, ptr noundef %36)
          to label %38 unwind label %39

38:                                               ; preds = %34
  call void @_ZN6google15LogMessageFatalD1Ev(ptr noundef nonnull align 8 dereferenceable(16) %10) #26
  unreachable

39:                                               ; preds = %34, %32
  %40 = landingpad { ptr, i32 }
          cleanup
  %41 = extractvalue { ptr, i32 } %40, 0
  store ptr %41, ptr %11, align 8
  %42 = extractvalue { ptr, i32 } %40, 1
  store i32 %42, ptr %12, align 4
  call void @_ZN6google15LogMessageFatalD1Ev(ptr noundef nonnull align 8 dereferenceable(16) %10) #26
  unreachable

43:                                               ; No predecessors!
  call void @llvm.lifetime.end.p0(i64 16, ptr %10) #24
  call void @llvm.lifetime.end.p0(i64 8, ptr %8) #24
  call void @llvm.lifetime.end.p0(i64 16, ptr %7) #24
  br label %46

44:                                               ; preds = %31
  br label %45

45:                                               ; preds = %44
  call void @llvm.lifetime.end.p0(i64 16, ptr %7) #24
  ret void

46:                                               ; preds = %43
  %47 = load ptr, ptr %11, align 8
  %48 = load i32, ptr %12, align 4
  %49 = insertvalue { ptr, i32 } poison, ptr %47, 0
  %50 = insertvalue { ptr, i32 } %49, i32 %48, 1
  resume { ptr, i32 } %50
}