; Function Attrs: mustprogress uwtable
define void @_ZN5folly10symbolizer7ElfFile4openEPKcRKNS1_7OptionsE(ptr noundef nonnull align 8 dereferenceable(576) %0, ptr noundef %1, ptr noundef nonnull readonly align 1 captures(none) dereferenceable(1) %2) local_unnamed_addr #2 align 2 personality ptr @__gxx_personality_v0 {
  %4 = alloca %"struct.folly::symbolizer::ElfFile::OpenResult", align 8
  %5 = alloca %"struct.google::CheckOpString", align 8
  %6 = alloca i32, align 4
  %7 = alloca %"class.google::LogMessageFatal", align 8
  call void @llvm.lifetime.start.p0(i64 16, ptr nonnull %4) #27
  %8 = tail call { i32, ptr } @_ZN5folly10symbolizer7ElfFile11openNoThrowEPKcRKNS1_7OptionsE(ptr noundef nonnull align 8 dereferenceable(576) %0, ptr noundef %1, ptr noundef nonnull align 1 dereferenceable(1) %2) #27
  %9 = extractvalue { i32, ptr } %8, 0
  store i32 %9, ptr %4, align 8
  %10 = getelementptr inbounds nuw i8, ptr %4, i64 8
  %11 = extractvalue { i32, ptr } %8, 1
  store ptr %11, ptr %10, align 8
  %12 = icmp eq i32 %9, -1
  br i1 %12, label %13, label %14

13:                                               ; preds = %3
  call void @_ZN5folly16throwSystemErrorIJRPKcEEEvDpOT_(ptr noundef nonnull align 8 dereferenceable(8) %10) #28
  unreachable

14:                                               ; preds = %3
  call void @llvm.lifetime.start.p0(i64 8, ptr nonnull %5) #27
  call void @llvm.lifetime.start.p0(i64 4, ptr nonnull %6) #27
  store i32 0, ptr %6, align 4, !tbaa !18
  %15 = icmp eq i32 %9, 0
  br i1 %15, label %_ZN6google12Check_EQImplIN5folly10symbolizer7ElfFile10OpenResultENS3_14OpenResultCodeEEEPNSt7__cxx1112basic_stringIcSt11char_traitsIcESaIcEEERKT_RKT0_PKc.exit.thread, label %_ZN6google12Check_EQImplIN5folly10symbolizer7ElfFile10OpenResultENS3_14OpenResultCodeEEEPNSt7__cxx1112basic_stringIcSt11char_traitsIcESaIcEEERKT_RKT0_PKc.exit, !prof !20

_ZN6google12Check_EQImplIN5folly10symbolizer7ElfFile10OpenResultENS3_14OpenResultCodeEEEPNSt7__cxx1112basic_stringIcSt11char_traitsIcESaIcEEERKT_RKT0_PKc.exit.thread: ; preds = %14
  call void @llvm.lifetime.end.p0(i64 4, ptr nonnull %6) #27
  br label %17

_ZN6google12Check_EQImplIN5folly10symbolizer7ElfFile10OpenResultENS3_14OpenResultCodeEEEPNSt7__cxx1112basic_stringIcSt11char_traitsIcESaIcEEERKT_RKT0_PKc.exit: ; preds = %14
  %16 = call noundef ptr @_ZN6google17MakeCheckOpStringIN5folly10symbolizer7ElfFile10OpenResultENS3_14OpenResultCodeEEEPNSt7__cxx1112basic_stringIcSt11char_traitsIcESaIcEEERKT_RKT0_PKc(ptr noundef nonnull align 8 dereferenceable(16) %4, ptr noundef nonnull align 4 dereferenceable(4) %6, ptr noundef nonnull @.str)
  store ptr %16, ptr %5, align 8, !tbaa !21
  call void @llvm.lifetime.end.p0(i64 4, ptr nonnull %6) #27
  %.not = icmp eq ptr %16, null
  br i1 %.not, label %17, label %18

17:                                               ; preds = %_ZN6google12Check_EQImplIN5folly10symbolizer7ElfFile10OpenResultENS3_14OpenResultCodeEEEPNSt7__cxx1112basic_stringIcSt11char_traitsIcESaIcEEERKT_RKT0_PKc.exit.thread, %_ZN6google12Check_EQImplIN5folly10symbolizer7ElfFile10OpenResultENS3_14OpenResultCodeEEEPNSt7__cxx1112basic_stringIcSt11char_traitsIcESaIcEEERKT_RKT0_PKc.exit
  call void @llvm.lifetime.end.p0(i64 8, ptr nonnull %5) #27
  call void @llvm.lifetime.end.p0(i64 16, ptr nonnull %4) #27
  ret void

18:                                               ; preds = %_ZN6google12Check_EQImplIN5folly10symbolizer7ElfFile10OpenResultENS3_14OpenResultCodeEEEPNSt7__cxx1112basic_stringIcSt11char_traitsIcESaIcEEERKT_RKT0_PKc.exit
  call void @llvm.lifetime.start.p0(i64 16, ptr nonnull %7) #27
  call void @_ZN6google15LogMessageFatalC1EPKciRKNS_13CheckOpStringE(ptr noundef nonnull align 8 dereferenceable(16) %7, ptr noundef nonnull @.str.1, i32 noundef 77, ptr noundef nonnull align 8 dereferenceable(8) %5)
  %19 = invoke noundef nonnull align 8 dereferenceable(8) ptr @_ZN6google10LogMessage6streamEv(ptr noundef nonnull align 8 dereferenceable(16) %7)
          to label %20 unwind label %24

20:                                               ; preds = %18
  %21 = load ptr, ptr %10, align 8, !tbaa !24
  %22 = invoke noundef nonnull align 8 dereferenceable(8) ptr @_ZStlsISt11char_traitsIcEERSt13basic_ostreamIcT_ES5_PKc(ptr noundef nonnull align 8 dereferenceable(8) %19, ptr noundef %21)
          to label %23 unwind label %24

23:                                               ; preds = %20
  call void @_ZN6google15LogMessageFatalD1Ev(ptr noundef nonnull align 8 dereferenceable(16) %7) #29
  unreachable

24:                                               ; preds = %20, %18
  %25 = landingpad { ptr, i32 }
          cleanup
  call void @_ZN6google15LogMessageFatalD1Ev(ptr noundef nonnull align 8 dereferenceable(16) %7) #29
  unreachable
}